; Function Attrs: mustprogress uwtable
define dso_local void @_ZN11btMultiBody19setJointPosMultiDofEiPKd(ptr nocapture noundef nonnull readonly align 8 dereferenceable(640) %this, i32 noundef %i, ptr nocapture noundef readonly %q) local_unnamed_addr #2 align 2 {
entry:
  %m_data.i = getelementptr inbounds i8, ptr %this, i64 192
  %idxprom.i = sext i32 %i to i64
  %0 = load ptr, ptr %m_data.i, align 8
  %arrayidx.i12 = getelementptr inbounds %struct.btMultibodyLink, ptr %0, i64 %idxprom.i
  %m_posVarCount13 = getelementptr inbounds i8, ptr %arrayidx.i12, i64 560
  %1 = load i32, ptr %m_posVarCount13, align 8
  %cmp14 = icmp sgt i32 %1, 0
  br i1 %cmp14, label %for.body, label %for.end

for.body:                                         ; preds = %entry, %for.body
  %indvars.iv = phi i64 [ %indvars.iv.next, %for.body ], [ 0, %entry ]
  %2 = phi ptr [ %4, %for.body ], [ %0, %entry ]
  %arrayidx = getelementptr inbounds double, ptr %q, i64 %indvars.iv
  %3 = load double, ptr %arrayidx, align 8
  %conv = fptrunc double %3 to float
  %arrayidx5 = getelementptr inbounds %struct.btMultibodyLink, ptr %2, i64 %idxprom.i, i32 19, i64 %indvars.iv
  store float %conv, ptr %arrayidx5, align 4
  %indvars.iv.next = add nuw nsw i64 %indvars.iv, 1
  %4 = load ptr, ptr %m_data.i, align 8
  %arrayidx.i = getelementptr inbounds %struct.btMultibodyLink, ptr %4, i64 %idxprom.i
  %m_posVarCount = getelementptr inbounds i8, ptr %arrayidx.i, i64 560
  %5 = load i32, ptr %m_posVarCount, align 8
  %6 = sext i32 %5 to i64
  %cmp = icmp slt i64 %indvars.iv.next, %6
  br i1 %cmp, label %for.body, label %for.end, !llvm.loop !17

for.end:                                          ; preds = %for.body, %entry
  %arrayidx.i.lcssa = phi ptr [ %arrayidx.i12, %entry ], [ %arrayidx.i, %for.body ]
  tail call void @_ZN15btMultibodyLink19updateCacheMultiDofEPf(ptr noundef nonnull align 8 dereferenceable(688) %arrayidx.i.lcssa, ptr noundef null)
  ret void
}